; ModuleID = '24/2634.c'
source_filename = "24/2634.c"
target datalayout = "e-m:e-p270:32:32-p271:32:32-p272:64:64-i64:64-f80:128-n8:16:32:64-S128"
target triple = "x86_64-pc-linux-gnu"

@.str = private unnamed_addr constant [3 x i8] c"%d\00", align 1
@.str.1 = private unnamed_addr constant [3 x i8] c"%s\00", align 1
@.str.2 = private unnamed_addr constant [4 x i8] c"%s\0A\00", align 1

; Function Attrs: noinline nounwind uwtable
define dso_local void @main() #0 {
  %1 = alloca i32, align 4
  %2 = alloca i32, align 4
  %3 = alloca i32, align 4
  %4 = alloca i32, align 4
  %5 = alloca [1000 x [50 x i8]], align 16
  %6 = alloca [1000 x i32], align 16
  %7 = call i32 (i8*, ...) @__isoc99_scanf(i8* getelementptr inbounds ([3 x i8], [3 x i8]* @.str, i64 0, i64 0), i32* %1)
  store i32 0, i32* %2, align 4
  br label %8

8:                                                ; preds = %27, %0
  %9 = load i32, i32* %2, align 4
  %10 = load i32, i32* %1, align 4
  %11 = icmp slt i32 %9, %10
  br i1 %11, label %12, label %30

12:                                               ; preds = %8
  %13 = load i32, i32* %2, align 4
  %14 = sext i32 %13 to i64
  %15 = getelementptr inbounds [1000 x [50 x i8]], [1000 x [50 x i8]]* %5, i64 0, i64 %14
  %16 = getelementptr inbounds [50 x i8], [50 x i8]* %15, i64 0, i64 0
  %17 = call i32 (i8*, ...) @__isoc99_scanf(i8* getelementptr inbounds ([3 x i8], [3 x i8]* @.str.1, i64 0, i64 0), i8* %16)
  %18 = load i32, i32* %2, align 4
  %19 = sext i32 %18 to i64
  %20 = getelementptr inbounds [1000 x [50 x i8]], [1000 x [50 x i8]]* %5, i64 0, i64 %19
  %21 = getelementptr inbounds [50 x i8], [50 x i8]* %20, i64 0, i64 0
  %22 = call i64 @strlen(i8* %21) #3
  %23 = trunc i64 %22 to i32
  %24 = load i32, i32* %2, align 4
  %25 = sext i32 %24 to i64
  %26 = getelementptr inbounds [1000 x i32], [1000 x i32]* %6, i64 0, i64 %25
  store i32 %23, i32* %26, align 4
  br label %27

27:                                               ; preds = %12
  %28 = load i32, i32* %2, align 4
  %29 = add nsw i32 %28, 1
  store i32 %29, i32* %2, align 4
  br label %8

30:                                               ; preds = %8
  store i32 1, i32* %2, align 4
  br label %31

31:                                               ; preds = %76, %30
  %32 = load i32, i32* %2, align 4
  %33 = load i32, i32* %1, align 4
  %34 = icmp slt i32 %32, %33
  br i1 %34, label %35, label %79

35:                                               ; preds = %31
  store i32 0, i32* %3, align 4
  br label %36

36:                                               ; preds = %72, %35
  %37 = load i32, i32* %3, align 4
  %38 = load i32, i32* %1, align 4
  %39 = load i32, i32* %2, align 4
  %40 = sub nsw i32 %38, %39
  %41 = icmp slt i32 %37, %40
  br i1 %41, label %42, label %75

42:                                               ; preds = %36
  %43 = load i32, i32* %3, align 4
  %44 = sext i32 %43 to i64
  %45 = getelementptr inbounds [1000 x i32], [1000 x i32]* %6, i64 0, i64 %44
  %46 = load i32, i32* %45, align 4
  %47 = load i32, i32* %3, align 4
  %48 = add nsw i32 %47, 1
  %49 = sext i32 %48 to i64
  %50 = getelementptr inbounds [1000 x i32], [1000 x i32]* %6, i64 0, i64 %49
  %51 = load i32, i32* %50, align 4
  %52 = icmp sgt i32 %46, %51
  br i1 %52, label %53, label %71

53:                                               ; preds = %42
  %54 = load i32, i32* %3, align 4
  %55 = sext i32 %54 to i64
  %56 = getelementptr inbounds [1000 x i32], [1000 x i32]* %6, i64 0, i64 %55
  %57 = load i32, i32* %56, align 4
  store i32 %57, i32* %4, align 4
  %58 = load i32, i32* %3, align 4
  %59 = add nsw i32 %58, 1
  %60 = sext i32 %59 to i64
  %61 = getelementptr inbounds [1000 x i32], [1000 x i32]* %6, i64 0, i64 %60
  %62 = load i32, i32* %61, align 4
  %63 = load i32, i32* %3, align 4
  %64 = sext i32 %63 to i64
  %65 = getelementptr inbounds [1000 x i32], [1000 x i32]* %6, i64 0, i64 %64
  store i32 %62, i32* %65, align 4
  %66 = load i32, i32* %4, align 4
  %67 = load i32, i32* %3, align 4
  %68 = add nsw i32 %67, 1
  %69 = sext i32 %68 to i64
  %70 = getelementptr inbounds [1000 x i32], [1000 x i32]* %6, i64 0, i64 %69
  store i32 %66, i32* %70, align 4
  br label %71

71:                                               ; preds = %53, %42
  br label %72

72:                                               ; preds = %71
  %73 = load i32, i32* %3, align 4
  %74 = add nsw i32 %73, 1
  store i32 %74, i32* %3, align 4
  br label %36

75:                                               ; preds = %36
  br label %76

76:                                               ; preds = %75
  %77 = load i32, i32* %2, align 4
  %78 = add nsw i32 %77, 1
  store i32 %78, i32* %2, align 4
  br label %31

79:                                               ; preds = %31
  store i32 0, i32* %2, align 4
  br label %80

80:                                               ; preds = %105, %79
  %81 = load i32, i32* %2, align 4
  %82 = load i32, i32* %1, align 4
  %83 = icmp slt i32 %81, %82
  br i1 %83, label %84, label %108

84:                                               ; preds = %80
  %85 = load i32, i32* %2, align 4
  %86 = sext i32 %85 to i64
  %87 = getelementptr inbounds [1000 x [50 x i8]], [1000 x [50 x i8]]* %5, i64 0, i64 %86
  %88 = getelementptr inbounds [50 x i8], [50 x i8]* %87, i64 0, i64 0
  %89 = call i64 @strlen(i8* %88) #3
  %90 = trunc i64 %89 to i32
  store i32 %90, i32* %4, align 4
  %91 = load i32, i32* %4, align 4
  %92 = load i32, i32* %1, align 4
  %93 = sub nsw i32 %92, 1
  %94 = sext i32 %93 to i64
  %95 = getelementptr inbounds [1000 x i32], [1000 x i32]* %6, i64 0, i64 %94
  %96 = load i32, i32* %95, align 4
  %97 = icmp eq i32 %91, %96
  br i1 %97, label %98, label %104

98:                                               ; preds = %84
  %99 = load i32, i32* %2, align 4
  %100 = sext i32 %99 to i64
  %101 = getelementptr inbounds [1000 x [50 x i8]], [1000 x [50 x i8]]* %5, i64 0, i64 %100
  %102 = getelementptr inbounds [50 x i8], [50 x i8]* %101, i64 0, i64 0
  %103 = call i32 (i8*, ...) @printf(i8* getelementptr inbounds ([4 x i8], [4 x i8]* @.str.2, i64 0, i64 0), i8* %102)
  br label %108

104:                                              ; preds = %84
  br label %105

105:                                              ; preds = %104
  %106 = load i32, i32* %2, align 4
  %107 = add nsw i32 %106, 1
  store i32 %107, i32* %2, align 4
  br label %80

108:                                              ; preds = %98, %80
  store i32 0, i32* %2, align 4
  br label %109

109:                                              ; preds = %131, %108
  %110 = load i32, i32* %2, align 4
  %111 = load i32, i32* %1, align 4
  %112 = icmp slt i32 %110, %111
  br i1 %112, label %113, label %134

113:                                              ; preds = %109
  %114 = load i32, i32* %2, align 4
  %115 = sext i32 %114 to i64
  %116 = getelementptr inbounds [1000 x [50 x i8]], [1000 x [50 x i8]]* %5, i64 0, i64 %115
  %117 = getelementptr inbounds [50 x i8], [50 x i8]* %116, i64 0, i64 0
  %118 = call i64 @strlen(i8* %117) #3
  %119 = trunc i64 %118 to i32
  store i32 %119, i32* %4, align 4
  %120 = load i32, i32* %4, align 4
  %121 = getelementptr inbounds [1000 x i32], [1000 x i32]* %6, i64 0, i64 0
  %122 = load i32, i32* %121, align 16
  %123 = icmp eq i32 %120, %122
  br i1 %123, label %124, label %130

124:                                              ; preds = %113
  %125 = load i32, i32* %2, align 4
  %126 = sext i32 %125 to i64
  %127 = getelementptr inbounds [1000 x [50 x i8]], [1000 x [50 x i8]]* %5, i64 0, i64 %126
  %128 = getelementptr inbounds [50 x i8], [50 x i8]* %127, i64 0, i64 0
  %129 = call i32 (i8*, ...) @printf(i8* getelementptr inbounds ([3 x i8], [3 x i8]* @.str.1, i64 0, i64 0), i8* %128)
  br label %134

130:                                              ; preds = %113
  br label %131

131:                                              ; preds = %130
  %132 = load i32, i32* %2, align 4
  %133 = add nsw i32 %132, 1
  store i32 %133, i32* %2, align 4
  br label %109

134:                                              ; preds = %124, %109
  ret void
}

declare dso_local i32 @__isoc99_scanf(i8*, ...) #1

; Function Attrs: nounwind readonly
declare dso_local i64 @strlen(i8*) #2

declare dso_local i32 @printf(i8*, ...) #1


!llvm.module.flags = !{!0}
!llvm.ident = !{!1}

!0 = !{i32 1, !"wchar_size", i32 4}
!1 = !{!"clang version 10.0.0-4ubuntu1 "}
